(dp0
I5267396
F1.8356164383561644
sI14426124
F1.5
sI2473997
F1.8064516129032258
sI7929879
F1.6666666666666665
sI11983535
F2.0
sI7225376
F1.6
sI13713445
F2.0
sI5726250
F1.6666666666666665
sI6758443
F1.0
sI8536113
F1.7777777777777777
sI9273395
F1.7142857142857144
sI6870366
F1.8045112781954886
sI5308475
F1.6666666666666665
sI13951039
F1.4285714285714286
sI13017162
F1.5714285714285714
sI12755021
F2.0
sI4964365
F1.6666666666666665
sI12738641
F1.7142857142857144
sI8274008
F2.0
sI11583581
F1.4
sI213086
F1.8181818181818183
sI13045194
F1.4285714285714286
sI163941
F1.7826086956521738
sI1867881
F2.0
sI9207914
F1.6744186046511627
sI6316145
F1.864864864864865
sI1966195
F1.8260869565217392
sI13451383
F1.6666666666666665
sI1171578
F1.925925925925926
sI475259
F1.3333333333333333
sI7880828
F1.8222222222222222
sI639101
F2.0
sI7741566
F1.8947368421052633
sI12796034
F2.0
sI13942919
F2.0
sI5054601
F1.631578947368421
sI14663819
F2.0
sI6627469
F1.25
sI7053454
F1.5
sI1589392
F0.0
sI1358531
F1.3333333333333333
sI13242393
F2.0
sI8970393
F1.7142857142857144
sI1704090
F1.7910447761194028
sI4432035
F1.8399999999999999
sI12856007
F0.6666666666666667
sI12812461
F2.0
sI13236936
F0.0
sI12109171
F1.7142857142857144
sI4710583
F1.0
sI1638584
F2.0
sI7495866
F1.4615384615384617
sI7454907
F2.0
sI14778561
F2.0
sI7856323
F1.5294117647058822
sI196806
F1.951219512195122
sI3727560
F1.7362637362637363
sI11370704
F2.0
sI10117329
F2.0
sI4653267
F2.0
sI5791960
F1.391304347826087
sI13101775
F2.0
sI3678429
F2.0
sI7725279
F1.619047619047619
sI11695285
F2.0
sI2372987
F1.3846153846153846
sI8634599
F1.6
sI6684904
F2.0
sI2384107
F1.7894736842105263
sI3842286
F1.8181818181818183
sI737519
F1.3333333333333333
sI8495348
F2.0
sI7454966
F1.5555555555555556
sI3677662
F1.7894736842105263
sI8921130
F1.0
sI12738816
F1.3333333333333333
sI10051842
F2.0
sI6881541
F1.75
sI2810123
F2.0
sI12034317
F2.0
sI10068240
F1.5757575757575757
sI4489490
F1.875
sI13959444
F2.0
sI2998554
F1.7894736842105263
sI13074722
F1.5
sI9961767
F2.0
sI11649321
F0.0
sI1949996
F2.0
sI8450098
F1.7948717948717947
sI14483758
F1.0
sI13435185
F1.0
sI5153080
F1.8775510204081631
sI7614517
F1.7948717948717947
sI12540640
F1.0
sI12927298
F0.0
sI12828996
F0.0
sI14072546
F1.6800000000000002
sI12318093
F1.5
sI4765070
F1.6978417266187051
sI14336348
F0.0
sI14565726
F0.0
sI6291807
F2.0
sI6373729
F2.0
sI14262627
F0.6666666666666667
sI13549924
F0.6666666666666667
sI9208166
F1.8095238095238095
sI5959740
F0.0
sI1220971
F1.627906976744186
sI7618925
F2.0
sI442735
F1.95
sI5734770
F1.793103448275862
sI13017460
F2.0
sI295285
F1.6842105263157894
sI7954808
F1.6666666666666665
sI8536127
F1.2380952380952381
sI11067772
F1.8666666666666667
sI4080000
F1.52
sI7840131
F1.5
sI3867014
F1.7142857142857144
sI13861258
F0.0
sI11796879
F2.0
sI13147585
F1.8888888888888888
sI14533011
F2.0
sI9183638
F1.3333333333333333
sI7420789
F1.878787878787879
sI9228519
F2.0
sI6160803
F1.8775510204081631
sI9896359
F2.0
sI6324649
F1.5185185185185186
sI14713259
F1.5
sI7479725
F1.8181818181818183
sI13083058
F2.0
sI10034592
F1.7142857142857144
sI6965516
F2.0
sI1136972
F1.842857142857143
sI6693305
F2.0
sI1745339
F1.8518518518518519
sI6971836
F1.6
sI2277821
F1.9036144578313254
sI8118718
F1.6666666666666665
sI13107648
F1.6842105263157894
sI3359170
F2.0
sI4303606
F1.8604651162790697
sI57800
F1.5647668393782384
sI14254537
F2.0
sI13640138
F2.0
sI7225201
F2.0
sI13697486
F2.0
sI7441144
F2.0
sI1884045
F1.6416184971098264
sI11592154
F2.0
sI14467554
F2.0
sI13163259
F2.0
sI4530670
F1.9333333333333333
sI9235198
F1.696969696969697
sI6939126
F1.5238095238095237
sI13156872
F2.0
sI7275018
F1.3333333333333333
sI12599820
F0.6666666666666667
sI1835533
F1.368421052631579
sI13041752
F1.6666666666666665
sI13081347
F0.6666666666666667
sI14770708
F2.0
sI4489752
F1.7272727272727273
sI6939162
F2.0
sI4456987
F2.0
sI2769450
F1.3333333333333333
sI5882411
F1.7739130434782608
sI8716849
F1.4545454545454546
sI13591091
F0.0
sI13623390
F2.0
sI25142
F1.5555555555555556
sI10175033
F2.0
sI14719754
F2.0
sI5661246
F1.7777777777777777
sI164418
F1.8378378378378377
sI4792901
F2.0
sI11772497
F1.5483870967741935
sI8577620
F2.0
sI10494550
F1.7872340425531914
sI11035223
F2.0
sI8792
F2.0
sI6759004
F2.0
sI8340072
F1.6800000000000002
sI4924009
F1.1153846153846154
sI13525610
F2.0
sI1327725
F1.8636363636363638
sI11985521
F2.0
sI13509242
F2.0
sI1106555
F1.3846153846153846
sI9364092
F1.6
sI11788394
F1.0
sI6355733
F2.0
sI377474
F1.5789473684210527
sI11494020
F2.0
sI7692933
F1.8222222222222222
sI8200839
F1.6842105263157894
sI10855052
F0.5
sI3236496
F2.0
sI7854872
F2.0
sI12436115
F1.1428571428571428
sI5702292
F1.8461538461538463
sI7283351
F2.0
sI8815257
F1.7037037037037037
sI13820571
F1.7241379310344827
sI7635616
F1.6
sI14418593
F2.0
sI508017
F1.858974358974359
sI10117803
F2.0
sI180914
F1.0
sI1721016
F1.3333333333333333
sI3457722
F1.7391304347826086
sI8757949
F1.2727272727272727
sI4489920
F2.0
sI14025410
F2.0
sI13730500
F1.1428571428571428
sI2384581
F2.0
sI14770892
F2.0
sI82637
F1.625
sI13746896
F2.0
sI7693009
F1.7333333333333334
sI14760739
F2.0
sI118905
F1.7647058823529411
sI14246616
F2.0
sI12665563
F1.6923076923076923
sI1303261
F2.0
sI1868513
F1.6666666666666665
sI2114274
F1.6
sI10470115
F1.3333333333333333
sI9757412
F1.6
sI5874408
F1.8048780487804879
sI7086825
F1.8
sI7054058
F1.8571428571428572
sI66288
F1.5346534653465347
sI4948724
F1.8181818181818183
sI697078
F1.25
sI6870485
F1.7142857142857144
sI8782592
F1.6
sI9331460
F2.0
sI9896713
F1.839080459770115
sI4040151
F1.7333333333333334
sI12264207
F1.7142857142857144
sI5620496
F1.8
sI5718801
F1.2
sI5899031
F1.7777777777777777
sI1401625
F1.5
sI5481243
F1.7333333333333334
sI14443295
F2.0
sI6292261
F1.8153846153846154
sI6276572
F1.8666666666666667
sI8088370
F2.0
sI7602994
F1.6
sI4967219
F1.5104895104895104
sI2843445
F1.9402985074626866
sI9626428
F2.0
sI9855805
F1.9
sI6939454
F1.5882352941176472
sI10036037
F2.0
sI2376518
F2.0
sI11687122
F1.8333333333333335
sI8454985
F2.0
sI25418
F1.5
sI13550412
F0.0
sI4670285
F2.0
sI7881551
F1.7419354838709677
sI11739985
F1.6800000000000002
sI5784404
F1.8571428571428572
sI5858133
F2.0
sI8184662
F2.0
sI14388025
F1.8
sI3957602
F1.873015873015873
sI5940069
F1.6842105263157894
sI4178790
F1.7297297297297298
sI13239143
F2.0
sI820073
F1.8695652173913042
sI6390634
F1.7560975609756098
sI1262443
F0.0
sI1090413
F1.9047619047619047
sI50032
F1.4666666666666668
sI12870514
F2.0
sI14074739
F2.0
sI11223924
F1.8666666666666667
sI4555637
F1.85
sI7914359
F1.8461538461538463
sI6742905
F1.5206611570247934
sI3703674
F1.0
sI10945407
F1.75
sI10656576
F2.0
sI1803138
F1.870967741935484
sI13140867
F2.0
sI6955911
F1.6
sI5718921
F1.2
sI8201104
F2.0
sI8700820
F2.0
sI13592046
F0.8888888888888888
sI3302294
F1.6390977443609023
sI11856912
F2.0
sI713627
F2.0
sI2933661
F1.7142857142857144
sI2515870
F1.8604651162790697
sI13345701
F1.7647058823529411
sI3392423
F1.7362637362637363
sI10552237
F0.75
sI13697966
F1.3333333333333333
sI7553969
F2.0
sI4350898
F1.0
sI5891012
F2.0
sI4695542
F1.4556962025316456
sI3294152
F1.6623376623376624
sI2294730
F1.5555555555555556
sI11912139
F2.0
sI2843596
F1.8987341772151898
sI12534735
F2.0
sI10478553
F2.0
sI6677469
F1.7391304347826086
sI1147871
F1.6991150442477876
sI3458030
F2.0
sI6685682
F1.4285714285714286
sI12026868
F1.0
sI12592117
F1.5238095238095237
sI6038520
F1.8181818181818183
sI7562235
F2.0
sI5727231
F2.0
sI13960193
F1.2
sI5768195
F2.0
sI6972426
F2.0
sI5293067
F1.8260869565217392
sI4350995
F1.5
sI7095320
F2.0
sI2892825
F0.8571428571428572
sI994138
F1.8333333333333335
sI2950175
F1.6666666666666665
sI4916260
F1.8333333333333335
sI7693354
F1.7017543859649122
sI10454061
F1.8
sI1541166
F1.5
sI336946
F1.7647058823529411
sI2729015
F2.0
sI9273
F2.0
sI7240775
F2.0
sI721979
F1.7142857142857144
sI9110588
F2.0
sI336960
F1.7103448275862068
sI10208321
F2.0
sI3343428
F1.5714285714285714
sI205894
F1.6640000000000001
sI11258721
F1.5
sI1352776
F1.3333333333333333
sI8987722
F1.7254901960784315
sI4875342
F1.6363636363636362
sI13863117
F1.7142857142857144
sI12092499
F2.0
sI14296152
F2.0
sI13698137
F1.5789473684210527
sI13296735
F1.8571428571428572
sI13313124
F2.0
sI13960293
F0.0
sI4662379
F1.6
sI7837202
F2.0
sI6939759
F2.0
sI1131634
F1.9166666666666665
sI14255219
F1.75
sI6213822
F2.0
sI8340599
F1.8571428571428572
sI6489209
F1.8571428571428572
sI14713980
F0.0
sI14402688
F1.0
sI6677640
F1.75
sI14574734
F2.0
sI8782991
F1.6666666666666665
sI3589267
F1.875
sI4777111
F2.0
sI9905304
F2.0
sI754845
F1.8823529411764706
sI6554785
F1.788235294117647
sI8316068
F2.0
sI10552485
F0.4444444444444444
sI7008455
F1.3333333333333333
sI13298546
F1.8666666666666667
sI3351728
F2.0
sI6268082
F1.7142857142857144
sI951476
F1.3333333333333333
sI6923446
F2.0
sI951480
F2.0
sI1615033
F1.7457627118644068
sI13968572
F2.0
sI7789429
F1.6
sI8947232
F1.6666666666666665
sI6677700
F1.8181818181818183
sI4233242
F1.8666666666666667
sI8733896
F1.8918918918918919
sI1885386
F1.7647058823529411
sI14574800
F2.0
sI4080849
F0.6666666666666667
sI13796564
F2.0
sI369880
F1.75
sI4736217
F2.0
sI12051674
F1.6923076923076923
sI9274587
F1.7777777777777777
sI9250014
F1.6
sI9765
F1.7777777777777777
sI115936
F1.1428571428571428
sI13993185
F1.8
sI3917027
F1.2758620689655173
sI13214949
F1.7142857142857144
sI5932267
F2.0
sI771309
F2.0
sI10945774
F2.0
sI2663667
F1.875
sI2016500
F2.0
sI6317304
F1.8214285714285714
sI9725178
F2.0
sI238846
F1.3333333333333333
sI14566657
F0.0
sI1115394
F1.6871508379888267
sI6513924
F1.8
sI6523777
F1.9272727272727272
sI13190410
F2.0
sI6776075
F2.0
sI9626892
F1.5
sI10233104
F1.4285714285714286
sI6645010
F1.5
sI6851459
F1.0
sI13968660
F2.0
sI1426711
F1.3846153846153846
sI7292184
F1.8095238095238095
sI2794782
F1.8
sI11584799
F2.0
sI8930592
F1.6857142857142857
sI2884903
F2.0
sI8471852
F1.7142857142857144
sI3032367
F1.951219512195122
sI2278704
F1.5061728395061729
sI14468407
F2.0
sI14222649
F1.0
sI7832890
F2.0
sI8193344
F1.8461538461538463
sI5918944
F1.6
sI1426754
F1.6164383561643836
sI5743939
F1.8620689655172413
sI6104388
F2.0
sI11240774
F2.0
sI7308623
F2.0
sI12592696
F2.0
sI197972
F1.8869565217391304
sI13927765
F1.5
sI7497047
F2.0
sI1819994
F2.0
sI6014302
F1.3333333333333333
sI3974503
F0.0
sI6006121
F1.8095238095238095
sI7095658
F1.0
sI13378923
F2.0
sI705900
F1.6800000000000002
sI9971054
F1.7777777777777777
sI11740527
F1.7142857142857144
sI9610609
F2.0
sI7161203
F2.0
sI2573685
F2.0
sI13378936
F2.0
sI13550969
F1.2727272727272727
sI705919
F1.6666666666666665
sI10749312
F1.3333333333333333
sI14484865
F0.0
sI6317446
F1.872340425531915
sI14124430
F2.0
sI14075290
F1.375
sI7325084
F0.0
sI3802530
F2.0
sI7841193
F2.0
sI13378987
F1.6666666666666665
sI7996844
F1.696969696969697
sI14662927
F2.0
sI14460344
F1.6666666666666665
sI2672058
F1.6
sI4793787
F1.709090909090909
sI11896394
F1.7777777777777777
sI7931331
F1.619047619047619
sI91588
F1.75
sI1861070
F1.8823529411764706
sI6227976
F1.0
sI3250847
F1.0
sI4457943
F1.6818181818181817
sI7185881
F2.0
sI3057116
F1.8113207547169812
sI8373729
F2.0
sI7939556
F2.0
sI4105704
F1.7692307692307692
sI4909590
F1.8058252427184467
sI4924910
F1.7837837837837838
sI13714934
F2.0
sI9340410
F1.8
sI6238463
F1.92
sI12707324
F2.0
sI12494334
F2.0
sI2243499
F2.0
sI9577988
F2.0
sI7513605
F0.0
sI14714374
F2.0
sI7308811
F2.0
sI189965
F2.0
sI9706199
F2.0
sI12708781
F1.8571428571428572
sI6686224
F1.4074074074074074
sI7783953
F2.0
sI7988755
F1.6764705882352942
sI14083611
F1.5294117647058822
sI10610205
F1.7142857142857144
sI2778656
F1.6
sI14673441
F2.0
sI8792552
F1.368421052631579
sI11159585
F2.0
sI11863590
F2.0
sI965554
F1.6666666666666665
sI6465075
F1.8
sI12797493
F0.75
sI5719606
F2.0
sI3294775
F1.838709677419355
sI6006328
F1.2
sI5588537
F1.6666666666666665
sI9504314
F0.0
sI7054912
F2.0
sI11041684
F2.0
sI10569282
F1.5714285714285714
sI10249798
F0.0
sI3229255
F1.9245283018867925
sI4490826
F2.0
sI894539
F1.95
sI8439372
F1.6551724137931034
sI12379725
F1.5
sI1902160
F1.8
sI13379155
F2.0
sI583255
F1.5555555555555556
sI11306586
F1.7692307692307692
sI8029788
F2.0
sI9824
F1.6363636363636362
sI13624929
F1.5
sI2754149
F1.6800000000000002
sI5498472
F0.0
sI12425501
F1.4666666666666668
sI11757166
F1.6129032258064515
sI7379913
F1.8666666666666667
sI5768819
F2.0
sI4972820
F0.0
sI1628130
F2.0
sI3250739
F1.75
sI1275498
F1.8666666666666667
sI4032126
F1.7777777777777777
sI9855
F2.0
sI1885825
F1.731958762886598
sI5940866
F1.7741935483870968
sI9860
F1.6363636363636362
sI9094794
F0.0
sI13624971
F2.0
sI9870
F1.6666666666666665
sI13078068
F2.0
sI6596242
F1.2857142857142856
sI4638356
F1.9047619047619047
sI4679319
F0.5
sI6317722
F1.6956521739130435
sI10995355
F1.6
sI13477535
F0.0
sI12986016
F2.0
sI6923942
F2.0
sI10299047
F1.3846153846153846
sI5801643
F1.6129032258064515
sI5834413
F1.0
sI1222327
F2.0
sI8537786
F1.5714285714285714
sI13788865
F1.75
sI11454147
F1.6923076923076923
sI1631942
F1.7777777777777777
sI8720673
F2.0
sI6629066
F2.0
sI9078482
F1.0
sI11986653
F1.5789473684210527
sI1550047
F1.4666666666666668
sI5269216
F1.6744186046511627
sI13371105
F2.0
sI13330146
F1.6666666666666665
sI8166076
F1.9555555555555557
sI4054079
F1.8032786885245902
sI2295530
F1.918032786885246
sI3589869
F1.0
sI7554801
F1.3333333333333333
sI8390386
F1.4285714285714286
sI1525494
F1.725
sI14780153
F2.0
sI8480507
F1.8666666666666667
sI9414403
F1.7391304347826086
sI9496325
F1.5
sI1214214
F2.0
sI9676551
F1.8095238095238095
sI13723404
F1.0
sI9858
F0.0
sI1066767
F1.8823529411764706
sI9496337
F1.8
sI8587030
F1.7241379310344827
sI12789527
F2.0
sI13813380
F0.5
sI13100828
F1.6923076923076923
sI10266397
F1.5
sI2189086
F1.6666666666666665
sI3278624
F2.0
sI182049
F1.8181818181818183
sI11061030
F2.0
sI13713713
F2.0
sI12756776
F1.2
sI13797162
F2.0
sI8566407
F1.6
sI13264687
F1.6666666666666665
sI321328
F2.0
sI7513906
F2.0
sI4900659
F1.8
sI1173306
F1.6521739130434783
sI11987762
F0.0
sI7620413
F2.0
sI12052288
F1.9375
sI13969217
F1.3333333333333333
sI4687499
F1.4166666666666667
sI12052292
F0.0
sI11462476
F1.7419354838709677
sI7482338
F1.7254901960784315
sI14813006
F2.0
sI5146447
F1.511111111111111
sI7055184
F2.0
sI13281106
F2.0
sI5146451
F1.6875
sI1886037
F2.0
sI3820516
F1.0
sI8988506
F1.7894736842105263
sI10749794
F1.8095238095238095
sI4015972
F1.8936170212765957
sI8439661
F1.7777777777777777
sI14632821
F1.5
sI11593592
F1.6842105263157894
sI9463444
F1.625
sI3606396
F1.0
sI12904318
F2.0
sI6268805
F1.9047619047619047
sI3721095
F1.836734693877551
sI6801288
F1.7647058823529411
sI12363660
F1.2
sI6432655
F1.5882352941176472
sI14218904
F0.0
sI4261781
F2.0
sI973840
F1.9523809523809523
sI4261784
F1.3333333333333333
sI9824155
F1.2857142857142856
sI4294557
F2.0
sI5433246
F2.0
sI3873776
F1.4285714285714286
sI10127270
F2.0
sI5769127
F1.0
sI13494185
F2.0
sI14426987
F2.0
sI7825327
F1.3333333333333333
sI11585459
F0.5
sI9750460
F1.7777777777777777
sI11528125
F2.0
sI8902304
F1.6842105263157894
sI8161218
F1.0
sI5004278
F2.0
sI3377100
F1.6666666666666665
sI6080461
F2.0
sI12699603
F1.0
sI5146580
F1.5517241379310345
sI3415033
F2.0
sI12265433
F1.6
sI3704801
F2.0
sI4351970
F2.0
sI13363171
F2.0
sI7931882
F2.0
sI6326257
F1.8064516129032258
sI8734707
F1.9473684210526314
sI1042420
F1.8076923076923077
sI7874552
F1.7241379310344827
sI3901439
F1.8181818181818183
sI6088708
F1.7692307692307692
sI13830152
F1.6
sI9791506
F2.0
sI8882195
F2.0
sI9857049
F1.6
sI9709597
F0.0
sI2811937
F1.7674418604651163
sI9922595
F0.0
sI9991857
F2.0
sI1868124
F1.75
sI4065322
F1.8260869565217392
sI11946029
F2.0
sI12855343
F1.5454545454545454
sI13813809
F1.0
sI4573238
F1.2888888888888888
sI8518665
F0.0
sI13002808
F1.8461538461538463
sI3311675
F2.0
sI8521792
F1.9310344827586206
sI13994056
F1.4545454545454546
sI12593225
F2.0
sI11921486
F2.0
sI4787213
F2.0
sI2549840
F1.7948717948717947
sI7743569
F1.8181818181818183
sI12372052
F2.0
sI5048406
F1.6521739130434783
sI11634778
F1.875
sI10234895
F0.6666666666666667
sI9685085
F2.0
sI6834270
F1.3103448275862069
sI10004575
F1.1111111111111112
sI3615760
F1.763157894736842
sI12855396
F0.0
sI13943142
F1.0
sI13076586
F2.0
sI9685102
F1.8095238095238095
sI14608495
F1.0
sI3434614
F1.92
sI7456890
F2.0
sI3131519
F1.75
sI4339392
F2.0
sI13812075
F1.7142857142857144
sI4106372
F1.7551020408163265
sI10037387
F1.4285714285714286
sI14092430
F1.4545454545454546
sI12593295
F1.5555555555555556
sI10356880
F1.8333333333333335
sI11757251
F0.0
sI6181230
F2.0
sI7956634
F1.7142857142857144
sI3664031
F1.619047619047619
sI5212321
F2.0
sI11036835
F2.0
sI8226982
F2.0
sI3410087
F1.625
sI7784616
F2.0
sI7194793
F1.657142857142857
sI8751275
F1.5625
sI1067184
F1.8113207547169812
sI10905777
F2.0
sI5834930
F2.0
sI11569331
F1.0
sI14231732
F2.0
sI13515084
F1.619047619047619
sI4489588
F1.625
sI9117009
F1.8518518518518519
sI67774
F1.8181818181818183
sI3309941
F2.0
sI8595650
F1.8947368421052633
sI12022134
F2.0
sI4402209
F1.3
sI4573388
F1.5319148936170213
sI13355213
F0.0
sI12781774
F1.7142857142857144
sI12339410
F1.5
sI9078998
F2.0
sI7735518
F2.0
sI7514336
F2.0
sI4516065
F1.3333333333333333
sI7596262
F1.75
sI6121709
F1.7777777777777777
sI1755376
F2.0
sI2538536
F1.7647058823529411
sI4032756
F1.8888888888888888
sI10607657
F2.0
sI7358714
F0.0
sI14043390
F1.0
sI3344639
F1.6444444444444444
sI11454728
F1.2727272727272727
sI4598026
F1.5789473684210527
sI9144588
F1.9069767441860463
sI13060366
F0.0
sI179245
F1.5757575757575757
sI4573458
F1.6296296296296298
sI11592067
F1.5
sI7246272
F1.8918918918918919
sI12667158
F0.8571428571428572
sI18711
F1.7647058823529411
sI4737304
F1.8666666666666667
sI8827268
F1.8181818181818183
sI4196643
F1.3055555555555556
sI12020004
F1.5
sI9470342
F2.0
sI9301075
F2.0
sI13642024
F2.0
sI76073
F1.6666666666666665
sI4065578
F1.7058823529411766
sI13027627
F0.0
sI8973362
F2.0
sI2246959
F1.4545454545454546
sI10266928
F1.5
sI4409653
F0.0
sI1648950
F1.8518518518518519
sI13248823
F2.0
sI9218362
F1.8125
sI6850880
F0.0
sI8366402
F1.8823529411764706
sI1596470
F1.7777777777777777
sI9865550
F2.0
sI12953937
F2.0
sI13510994
F1.6
sI12233043
F1.4054054054054055
sI12052820
F1.0
sI182613
F1.88
sI9292118
F1.4545454545454546
sI14756184
F2.0
sI7489883
F0.0
sI6400348
F2.0
sI12069214
F1.25
sI5851489
F1.3333333333333333
sI14428514
F2.0
sI8325477
F1.5
sI543078
F2.0
sI67946
F2.0
sI3946215
F1.7623762376237624
sI13912429
F0.0
sI4262255
F1.7543859649122808
sI13699440
F2.0
sI625012
F1.8699186991869918
sI2722165
F1.6400000000000001
sI9169272
F0.0
sI4532603
F1.6923076923076923
sI9013631
F1.875
sI59776
F1.0
sI10070404
F1.2
sI8227206
F1.5555555555555556
sI11397511
F1.6666666666666665
sI1223050
F1.7435897435897436
sI1110423
F1.8095238095238095
sI8497555
F0.8571428571428572
sI13912470
F1.6
sI9677207
F2.0
sI13912472
F2.0
sI13658522
F2.0
sI6924700
F1.7623762376237624
sI10054046
F2.0
sI2754975
F1.9333333333333333
sI12683680
F1.4285714285714286
sI10381729
F1.6470588235294117
sI9897713
F2.0
sI8325544
F2.0
sI14322091
F2.0
sI14756269
F0.0
sI6400432
F1.619047619047619
sI3303860
F1.0
sI10627514
F2.0
sI13298108
F2.0
sI6277566
F1.3333333333333333
sI6990023
F1.9
sI1066742
F1.4375
sI13113079
F1.0
sI13478348
F1.8
sI1321422
F1.8762886597938144
sI13674964
F2.0
sI14300921
F1.3333333333333333
sI13298137
F2.0
sI4409819
F2.0
sI14682588
F0.0
sI4565470
F2.0
sI6613472
F2.0
sI3656168
F2.0
sI10730
F1.7142857142857144
sI6089196
F1.8888888888888888
sI9349614
F0.0
sI12585455
F1.8333333333333335
sI5990896
F1.4594594594594594
sI11020786
F1.6428571428571428
sI8735827
F2.0
sI13584884
F1.6
sI14092792
F1.6666666666666665
sI1092093
F1.7777777777777777
sI11618815
F1.7894736842105263
sI4628907
F1.6666666666666665
sI27141
F1.5
sI10758
F2.0
sI12233225
F1.4814814814814814
sI8481291
F1.0
sI8112652
F1.5
sI9349646
F2.0
sI1403408
F2.0
sI1591827
F1.7094017094017095
sI13642260
F2.0
sI2247190
F1.7142857142857144
sI13937181
F2.0
sI2583074
F1.8064516129032258
sI14592547
F2.0
sI13707814
F2.0
sI6629929
F1.9130434782608696
sI9677354
F1.4285714285714286
sI7113260
F1.7391304347826086
sI6709682
F1.52
sI6179374
F1.3333333333333333
sI8014383
F1.3333333333333333
sI6261296
F1.6206896551724137
sI12618291
F2.0
sI10807
F0.0
sI10809
F1.5714285714285714
sI14461498
F2.0
sI10811
F2.0
sI11902134
F1.3333333333333333
sI7080514
F2.0
sI12233285
F1.6153846153846154
sI12626504
F1.5
sI5280183
F2.0
sI9611852
F1.8461538461538463
sI10734159
F1.8181818181818183
sI6728273
F1.6666666666666665
sI8686165
F1.8571428571428572
sI6300089
F1.7272727272727273
sI12175961
F2.0
sI12560987
F1.6363636363636362
sI8301150
F1.3333333333333333
sI11717217
F1.0
sI14107067
F1.4285714285714286
sI12233830
F2.0
sI6014737
F1.125
sI658029
F1.4461538461538461
sI11376403
F2.0
sI526970
F1.7281553398058254
sI3967611
F2.0
sI60029
F1.8035714285714286
sI7252607
F2.0
sI4000384
F1.896551724137931
sI2564544
F1.8666666666666667
sI8391298
F1.5384615384615383
sI12949270
F2.0
sI8645254
F0.0
sI7178893
F2.0
sI3992208
F1.4456521739130435
sI8252058
F1.8202247191011236
sI12176027
F2.0
sI13642397
F2.0
sI4377247
F1.696969696969697
sI13642405
F1.0
sI12208806
F2.0
sI8923817
F1.7777777777777777
sI8555187
F2.0
sI11201204
F2.0
sI2378421
F1.8412698412698414
sI6793913
F0.0
sI5999291
F1.8666666666666667
sI8170181
F1.8181818181818183
sI395975
F1.8461538461538463
sI12593869
F1.0
sI3377871
F1.526315789473684
sI4978467
F2.0
sI11922134
F1.4444444444444444
sI8579799
F2.0
sI6793945
F1.925925925925926
sI5384923
F2.0
sI14486237
F2.0
sI13547301
F1.6666666666666665
sI6425318
F1.75
sI7293671
F2.0
sI13421289
F1.6923076923076923
sI7842550
F1.4042553191489362
sI8153848
F1.6049382716049383
sI13028092
F1.8
sI4549374
F1.8644067796610169
sI9218312
F1.878787878787879
sI6908672
F2.0
sI1141888
F1.7222222222222223
sI14469894
F2.0
sI5581575
F2.0
sI1141522
F1.6793248945147679
sI4742275
F1.6666666666666665
sI1059604
F1.6153846153846154
sI4410142
F1.7777777777777777
sI13884549
F1.6
sI7678756
F2.0
sI13855525
F1.6
sI14158636
F2.0
sI12143408
F2.0
sI8014642
F1.0
sI14682931
F2.0
sI10701625
F2.0
sI2943804
F1.7142857142857144
sI6425405
F1.3333333333333333
sI11397952
F1.7142857142857144
sI13110084
F1.8571428571428572
sI12290886
F1.0
sI6646604
F1.7333333333333334
sI7965521
F1.75
sI12655758
F1.3333333333333333
sI12897110
F1.3333333333333333
sI12815192
F1.5
sI1051482
F1.7241379310344827
sI8014683
F2.0
sI4475740
F2.0
sI8596320
F1.75
sI1436513
F2.0
sI8309604
F2.0
sI1551205
F1.85
sI9390951
F2.0
sI7449448
F1.8461538461538463
sI13233001
F2.0
sI4025194
F1.8266666666666667
sI6343532
F1.8095238095238095
sI13192046
F2.0
sI7809904
F1.9047619047619047
sI14322546
F0.0
sI4287348
F1.7857142857142856
sI7474044
F2.0
sI8063870
F2.0
sI10742655
F2.0
sI6761345
F0.0
sI1428355
F1.967741935483871
sI5532549
F2.0
sI4287366
F1.4285714285714286
sI6119918
F1.5686274509803921
sI13028247
F2.0
sI9145242
F1.8153846153846154
sI8962914
F1.6
sI11553697
F2.0
sI13724578
F1.5
sI12274601
F2.0
sI568234
F1.8181818181818183
sI9530285
F0.0
sI915272
F1.7066666666666666
sI4860853
F1.8095238095238095
sI11799482
F2.0
sI13306811
F1.8378378378378377
sI12446656
F1.8
sI1821633
F1.821138211382114
sI60356
F0.8
sI2187766
F1.3636363636363638
sI4934600
F1.65625
sI10881994
F1.7692307692307692
sI8309711
F1.5862068965517242
sI12987348
F1.8461538461538463
sI12291029
F1.6842105263157894
sI14340601
F2.0
sI27611
F1.25
sI4975581
F1.5319148936170213
sI14035936
F2.0
sI8801250
F1.5
sI13282275
F2.0
sI3075044
F1.8333333333333335
sI5434353
F1.7142857142857144
sI9382898
F1.5510204081632653
sI9833460
F1.3333333333333333
sI1544702
F1.7297297297297298
sI6310903
F1.7948717948717947
sI6015995
F1.0
sI5991427
F1.1304347826086956
sI9415687
F1.4545454545454546
sI9694218
F1.7454545454545456
sI8211468
F1.5555555555555556
sI994317
F2.0
sI3730447
F1.7241379310344827
sI3673104
F2.0
sI14250499
F2.0
sI11966297
F1.5
sI12094488
F0.6666666666666667
sI453660
F1.9636363636363636
sI8055839
F2.0
sI9415712
F2.0
sI322593
F1.84375
sI8956962
F1.0
sI6655012
F1.8571428571428572
sI2862120
F1.7560975609756098
sI13225005
F0.0
sI14461998
F1.0
sI8703026
F1.6744186046511627
sI1731639
F1.7777777777777777
sI6990904
F1.6842105263157894
sI13126713
F1.0
sI10656899
F1.6666666666666665
sI3050565
F1.6521739130434783
sI3520353
F1.9393939393939394
sI4205641
F1.5652173913043477
sI1961034
F2.0
sI13110347
F1.7575757575757576
sI4402259
F1.878787878787879
sI7277653
F1.9230769230769231
sI12020829
F2.0
sI13233250
F2.0
sI13077603
F2.0
sI8014950
F2.0
sI4820071
F1.7126436781609196
sI519272
F1.7777777777777777
sI1551467
F1.6
sI14109809
F2.0
sI7367795
F2.0
sI8670336
F1.263157894736842
sI4467841
F2.0
sI8096900
F1.6666666666666665
sI9825415
F2.0
sI6089865
F1.7666666666666666
sI11947150
F1.3333333333333333
sI12971157
F1.0
sI3181719
F1.8636363636363638
sI8981656
F1.9130434782608696
sI197146
F1.6
sI4787359
F1.6666666666666665
sI10333345
F1.6470588235294117
sI8970779
F2.0
sI4181163
F2.0
sI44205
F1.868421052631579
sI5352623
F2.0
sI7531700
F1.0
sI2395326
F1.8962962962962964
sI3591359
F1.7692307692307692
sI52423
F2.0
sI1445064
F1.8630136986301369
sI5885130
F2.0
sI13397201
F0.0
sI13872339
F2.0
sI13266133
F2.0
sI13585624
F1.3333333333333333
sI3198169
F1.7777777777777777
sI10882267
F2.0
sI3591388
F1.8666666666666667
sI7933149
F1.7333333333333334
sI12541136
F1.6666666666666665
sI5344465
F1.5
sI1109224
F1.8285714285714287
sI1584362
F1.706896551724138
sI5049582
F2.0
sI8662258
F1.8235294117647058
sI13487348
F2.0
sI6089975
F2.0
sI1174776
F2.0
sI8473851
F2.0
sI6005290
F2.0
sI8469735
F1.3333333333333333
sI13266176
F1.2727272727272727
sI13864196
F1.7142857142857144
sI2747654
F1.3432835820895521
sI13024385
F2.0
sI1887507
F1.6666666666666665
sI2886933
F1.8260869565217392
sI7982359
F2.0
sI12627225
F1.0
sI5606682
F1.7435897435897436
sI14040282
F1.6666666666666665
sI986399
F2.0
sI1197857
F1.5555555555555556
sI13249829
F2.0
sI68902
F2.0
sI8326439
F1.0
sI12074204
F0.0
sI3788075
F1.8260869565217392
sI10997047
F1.7894736842105263
sI1183032
F2.0
sI879929
F1.8604651162790697
sI11398458
F2.0
sI11455804
F2.0
sI1425973
F1.8333333333333335
sI12586305
F2.0
sI2108738
F1.8823529411764706
sI3539510
F1.6666666666666665
sI14691657
F1.5
sI11906382
F2.0
sI8006992
F2.0
sI3616081
F1.9370078740157481
sI5582163
F1.8
sI11229070
F1.8125
sI13651290
F1.5
sI1887581
F1.59375
sI3870046
F1.8181818181818183
sI12356962
F1.8666666666666667
sI8441187
F1.3777777777777778
sI14683493
F0.0
sI8301926
F2.0
sI13110631
F1.7333333333333334
sI11701611
F1.75
sI8908145
F2.0
sI7728499
F1.3333333333333333
sI8514932
F1.8
sI6914622
F2.0
sI11648688
F1.0
sI7728508
F1.619047619047619
sI2043261
F1.4666666666666668
sI4614037
F1.625
sI14404992
F2.0
sI5295491
F1.9230769230769231
sI9858437
F1.3599999999999999
sI11275661
F1.5
sI13397390
F2.0
sI1944976
F1.2
sI8400275
F1.408450704225352
sI8523157
F2.0
sI9407895
F1.4545454545454546
sI9137560
F2.0
sI8539551
F1.5151515151515151
sI11431331
F1.4545454545454546
sI2000797
F1.7627118644067796
sI2649521
F2.0
sI3575220
F1.75
sI7474615
F2.0
sI10857914
F1.75
sI585148
F1.7419354838709677
sI12463555
F2.0
sI6843850
F1.3333333333333333
sI5025015
F1.4141414141414141
sI716245
F1.7674418604651163
sI1166808
F1.793103448275862
sI4577188
F1.65625
sI1510876
F1.8260869565217392
sI1936861
F1.8461538461538463
sI10653150
F1.5609756097560976
sI13864415
F2.0
sI4828640
F1.925925925925926
sI4034018
F1.7333333333333334
sI4173285
F2.0
sI5590505
F2.0
sI12914154
F1.6
sI13667826
F1.5
sI4287989
F1.7142857142857144
sI28150
F1.619047619047619
sI8556025
F1.8888888888888888
sI11873789
F2.0
sI7630340
F1.65
sI11521541
F2.0
sI13078025
F2.0
sI7630346
F1.8620689655172413
sI14151531
F1.4285714285714286
sI2174476
F1.7846153846153845
sI14168664
F1.75
sI9367059
F2.0
sI1240598
F1.631578947368421
sI6131224
F1.8
sI4181530
F2.0
sI13955674
F2.0
sI232990
F1.7818181818181817
sI20000
F1.6531365313653137
sI9727523
F1.2
sI4861476
F1.3714285714285714
sI7310887
F1.8611111111111112
sI2706986
F1.875
sI13168176
F1.0
sI5639731
F1.2307692307692308
sI257588
F1.7878787878787878
sI5729845
F1.6170212765957448
sI7007801
F1.4545454545454546
sI6598203
F1.8333333333333335
sI5967421
F1.6956521739130435
sI10268223
F2.0
sI12865092
F1.0
sI13028935
F2.0
sI10964552
F1.803921568627451
sI200265
F1.7796610169491527
sI6983246
F1.7857142857142856
sI6409811
F1.696969696969697
sI13782612
F2.0
sI3673688
F1.7777777777777777
sI3755609
F1.619047619047619
sI12930651
F1.8333333333333335
sI12709469
F2.0
sI9047646
F0.0
sI13684319
F2.0
sI839265
F1.5
sI5058148
F1.3333333333333333
sI7294565
F2.0
sI1248870
F2.0
sI8406972
F2.0
sI4558443
F1.8181818181818183
sI6844012
F2.0
sI2657905
F1.7142857142857144
sI7106162
F2.0
sI14093943
F2.0
sI6644330
F1.6
sI10138904
F1.6
sI13331733
F2.0
sI14536322
F2.0
sI13078148
F2.0
sI11202183
F1.8
sI2043529
F1.368421052631579
sI12390027
F1.5294117647058822
sI3344322
F1.8125
sI12365454
F1.4666666666666668
sI8146576
F2.0
sI12652181
F2.0
sI3353
F1.7058823529411766
sI10524612
F1.8260869565217392
sI2592416
F1.6666666666666665
sI7474855
F1.0
sI8097453
F2.0
sI14429876
F2.0
sI13733558
F1.5
sI4107959
F1.9402985074626866
sI11275963
F2.0
sI667325
F1.8275862068965516
sI4484798
F1.125
sI749247
F1.903225806451613
sI2821825
F2.0
sI7052171
F2.0
sI1494726
F1.7777777777777777
sI4574921
F1.5128205128205128
sI650956
F1.657142857142857
sI13586128
F0.0
sI7724412
F1.0
sI12997241
F2.0
sI13979354
F1.4285714285714286
sI533114
F2.0
sI4493030
F2.0
sI10186477
F2.0
sI13684464
F2.0
sI9299923
F1.5714285714285714
sI2698996
F1.8473282442748091
sI2174711
F1.8415841584158414
sI69369
F1.783132530120482
sI6426364
F1.6
sI12979965
F2.0
sI7540480
F1.8518518518518519
sI732932
F1.8888888888888888
sI2633478
F1.6666666666666665
sI13004551
F2.0
sI7900936
F1.9310344827586206
sI14389002
F2.0
sI13512459
F0.0
sI9858828
F1.5454545454545454
sI13414159
F1.8571428571428572
sI1863443
F1.6
sI9473816
F2.0
sI7573274
F2.0
sI11734812
F1.6
sI3968797
F1.793103448275862
sI2821921
F2.0
sI12855005
F2.0
sI13709092
F1.5
sI619142
F1.8666666666666667
sI2682662
F1.7857142857142856
sI8482847
F1.8
sI11087657
F2.0
sI12735111
F0.0
sI11333422
F1.6800000000000002
sI7868209
F2.0
sI4255538
F1.8
sI4263736
F1.811764705882353
sI14372667
F2.0
sI13037372
F1.7142857142857144
sI13816458
F1.4285714285714286
sI6401859
F1.7037037037037037
sI11767622
F1.25
sI732999
F1.7142857142857144
sI6106955
F2.0
sI11470818
F1.75
sI1175376
F1.6734693877551021
sI6565713
F1.75
sI2215762
F2.0
sI1044307
F2.0
sI12873559
F2.0
sI4759640
F0.0
sI3903324
F1.6666666666666665
sI716643
F2.0
sI13512551
F2.0
sI12849003
F2.0
sI6516588
F2.0
sI77681
F1.5238095238095237
sI11087731
F2.0
sI1167221
F1.7113402061855671
sI13578106
F2.0
sI77691
F1.670103092783505
sI8310653
F1.6363636363636362
sI11626869
F1.8333333333333335
sI13430656
F2.0
sI8310660
F1.5
sI176006
F1.6363636363636362
sI12971329
F2.0
sI3182473
F1.7777777777777777
sI12603280
F2.0
sI2183058
F1.9452054794520548
sI6000531
F2.0
sI7114655
F2.0
sI7368611
F1.8918918918918919
sI6778788
F2.0
sI10103725
F2.0
sI4435883
F2.0
sI9493951
F1.441860465116279
sI8015793
F2.0
sI12824498
F1.5
sI13578911
F2.0
sI8384444
F1.8260869565217392
sI4632511
F1.8260869565217392
sI533152
F1.8333333333333335
sI14094279
F2.0
sI6614984
F1.9285714285714286
sI8163273
F2.0
sI2183117
F1.7894736842105263
sI8064980
F2.0
sI13064781
F2.0
sI11980767
F1.0
sI12750816
F1.0
sI8458210
F1.7083333333333335
sI9723217
F0.0
sI5074924
F1.6
sI8613870
F2.0
sI4812786
F0.0
sI789843
F2.0
sI4460532
F1.8717948717948718
sI10883063
F1.8666666666666667
sI13602808
F2.0
sI9809914
F2.0
sI13733887
F1.8181818181818183
sI14282764
F1.3333333333333333
sI7475215
F1.0
sI9430774
F2.0
sI2846739
F1.7083333333333335
sI36885
F1.92
sI8310807
F1.7916666666666665
sI1937433
F2.0
sI5844314
F1.5217391304347827
sI12382239
F0.9090909090909091
sI7840411
F1.2
sI11300899
F1.7333333333333334
sI8228903
F1.6385542168674698
sI8859689
F1.6
sI12890156
F1.0769230769230769
sI12210223
F1.75
sI3166256
F1.7058823529411766
sI14127153
F2.0
sI962610
F1.8181818181818183
sI5992501
F2.0
sI3985462
F1.8677685950413223
sI13586491
F2.0
sI3182652
F1.2
sI3420221
F1.6111111111111112
sI7901248
F2.0
sI12356
F1.7777777777777777
sI12726343
F0.0
sI4304969
F1.8666666666666667
sI3371091
F2.0
sI13298014
F0.0
sI8982616
F1.5686274509803921
sI11530331
F2.0
sI7508063
F2.0
sI4546333
F1.8666666666666667
sI4583526
F1.76
sI1658983
F1.9565217391304348
sI1912940
F1.5873015873015874
sI8310894
F2.0
sI8097903
F2.0
sI13152370
F1.4
sI10850420
F1.5294117647058822
sI4132983
F1.8823529411764706
sI9834617
F1.0
sI8351880
F1.7464788732394365
sI11120777
F1.8333333333333335
sI7377034
F1.8823529411764706
sI14085771
F1.0
sI7860369
F2.0
sI12441
F1.3103448275862069
sI14774426
F2.0
sI11126122
F2.0
sI11371205
F1.4736842105263157
sI8704161
F1.9166666666666665
sI2412715
F2.0
sI13275308
F1.6666666666666665
sI7694365
F2.0
sI1454258
F1.852760736196319
sI7475379
F1.6666666666666665
sI5640375
F1.8
sI7499960
F1.7777777777777777
sI8490356
F1.7777777777777777
sI1929406
F2.0
sI708802
F1.8642533936651584
sI1732804
F1.8983050847457628
sI8048838
F2.0
sI6009031
F2.0
sI3641545
F1.6
sI10411383
F2.0
sI10113230
F1.4705882352941178
sI4518100
F1.4285714285714286
sI11710680
F1.6
sI3420384
F2.0
sI13512930
F2.0
sI2126053
F1.6756756756756757
sI11579622
F1.6842105263157894
sI9834727
F1.75
sI14668008
F0.0
sI1757417
F1.8947368421052633
sI4526315
F1.8571428571428572
sI798957
F1.7916666666666665
sI1071144
F2.0
sI8302844
F1.717948717948718
sI4698367
F1.7666666666666666
sI831744
F1.935483870967742
sI8065282
F1.6338028169014085
sI4149974
F1.8
sI13594886
F1.6428571428571428
sI5067019
F2.0
sI6015021
F2.0
sI2547075
F1.6
sI8319253
F1.0
sI8614167
F1.7142857142857144
sI848152
F1.8064516129032258
sI3363097
F1.8095238095238095
sI11276570
F2.0
sI9900315
F1.4545454545454546
sI536865
F1.4702702702702704
sI6500646
F1.2
sI1421610
F2.0
sI14823724
F2.0
sI4526384
F1.4285714285714286
sI13513012
F1.6666666666666665
sI9212213
F1.7777777777777777
sI8663351
F1.8461538461538463
sI12833084
F1.0
sI9711934
F1.619047619047619
sI10295349
F1.6
sI5075267
F1.6923076923076923
sI3060038
F1.5833333333333335
sI14692682
F2.0
sI8720718
F1.825
sI4410765
F2.0
sI4870883
F1.75
sI9680953
F1.4444444444444444
sI9448243
F1.8
sI7205210
F1.8181818181818183
sI9507164
F0.0
sI5927267
F1.75
sI7475557
F1.5294117647058822
sI627048
F1.8
sI6705513
F1.7333333333333334
sI7721323
F1.8947368421052633
sI13996398
F1.0
sI14086516
F1.3333333333333333
sI1200502
F1.5882352941176472
sI4698487
F1.5
sI11653496
F2.0
sI4075898
F1.6585365853658538
sI11514237
F1.6
sI13531200
F1.6666666666666665
sI9474436
F1.8461538461538463
sI7836038
F1.5384615384615383
sI8696200
F1.6666666666666665
sI4977034
F1.8823529411764706
sI13111691
F0.0
sI11022736
F2.0
sI9826706
F1.3333333333333333
sI2683284
F1.8608695652173912
sI496022
F2.0
sI8753559
F1.7777777777777777
sI13586841
F1.0
sI217498
F1.9
sI4223387
F1.9069767441860463
sI13460331
F2.0
sI8696236
F1.8064516129032258
sI6410674
F1.8644067796610169
sI6287797
F2.0
sI3303497
F1.3333333333333333
sI1839549
F1.7627118644067796
sI12308927
F1.8333333333333335
sI12784064
F1.8181818181818183
sI332225
F2.0
sI11841986
F1.1111111111111112
sI11758169
F1.8571428571428572
sI8442314
F1.4814814814814814
sI11334091
F1.75
sI8417742
F2.0
sI12857811
F1.5714285714285714
sI13685207
F2.0
sI29155
F1.8064516129032258
sI1724900
F1.6153846153846154
sI250345
F1.7272727272727273
sI4518380
F1.6923076923076923
sI4190704
F1.4567901234567902
sI3969526
F1.7657657657657657
sI4089940
F1.7419354838709677
sI14414330
F2.0
sI11964926
F1.6
sI8165898
F2.0
sI7868931
F1.0
sI10228228
F2.0
sI11211273
F1.9166666666666665
sI10227043
F1.7575757575757576
sI6377998
F1.7894736842105263
sI13059
F1.3846153846153846
sI815639
F1.7651245551601424
sI11866651
F1.85
sI594693
F1.8260869565217392
sI12126299
F2.0
sI9130532
F1.0
sI3068453
F1.5135135135135136
sI6017574
F2.0
sI14110129
F1.6
sI8983081
F2.0
sI225834
F1.7894736842105263
sI13333256
F0.0
sI5616179
F1.9393939393939394
sI4461111
F2.0
sI13005579
F2.0
sI2495047
F1.75
sI315982
F1.4047619047619047
sI6337106
F1.5869565217391304
sI5976821
F2.0
sI14774868
F1.0
sI13546070
F1.0
sI466361
F1.8333333333333335
sI13218392
F2.0
sI9728602
F2.0
sI12309083
F1.6363636363636362
sI6378076
F1.9130434782608696
sI13445221
F0.0
sI2014651
F1.8333333333333335
sI561769
F1.5
sI5455293
F1.875
sI12268144
F2.0
sI3740274
F1.7222222222222223
sI7434871
F1.6842105263157894
sI2634361
F1.6734693877551021
sI9949819
F1.0
sI12857981
F2.0
sI13062783
F2.0
sI971393
F2.0
sI2021483
F2.0
sI3601030
F1.6623376623376624
sI14504583
F1.0
sI14414473
F2.0
sI9958026
F1.0909090909090908
sI1372816
F0.6666666666666667
sI3977877
F2.0
sI4547353
F2.0
sI5903001
F1.8333333333333335
sI13652639
F2.0
sI8303267
F2.0
sI5124772
F2.0
sI13251243
F1.875
sI6574771
F1.8399999999999999
sI11907764
F1.619047619047619
sI12087989
F2.0
sI13992811
F1.75
sI8737466
F1.4
sI225979
F1.8857142857142857
sI2723274
F2.0
sI6197950
F2.0
sI11563716
F2.0
sI9614024
F1.75
sI12899026
F2.0
sI414419
F1.7371794871794872
sI12997334
F1.75
sI6927063
F1.4285714285714286
sI8327907
F1.3333333333333333
sI5870309
F1.6
sI11735784
F2.0
sI10228457
F2.0
sI8680170
F2.0
sI766700
F1.7540983606557377
sI14217967
F2.0
sI11866869
F2.0
sI8753913
F1.9230769230769231
sI12191871
F1.7142857142857144
sI14663743
F2.0
sI13054720
F1.9375
sI2634499
F1.3170731707317074
sI14603013
F2.0
sI4567815
F1.8
sI11842312
F1.5
sI9998187
F2.0
sI2360109
F1.3953488372093024
sI3585343
F1.574468085106383
sI3765014
F1.5555555555555556
sI979759
F2.0
sI1815326
F1.8719999999999999
sI1102623
F1.9148936170212765
sI13521713
F2.0
sI5919529
F1.8666666666666667
sI1322461
F1.8933333333333333
sI10056496
F1.625
sI4510513
F1.9047619047619047
sI5026613
F1.7241379310344827
sI12915510
F0.5
sI12653367
F0.0
sI8704828
F1.4705882352941178
sI2216767
F1.803921568627451
sI3953472
F2.0
sI3289921
F1.8888888888888888
sI7071883
F1.7333333333333334
sI12825412
F2.0
sI4518710
F1.5789473684210527
sI1471308
F1.4722222222222223
sI7910223
F1.887323943661972
sI70481
F1.3333333333333333
sI11970702
F2.0
sI12409042
F1.7142857142857144
sI11686744
F1.0
sI21337
F2.0
sI8172380
F1.6551724137931034
sI5714786
F1.1666666666666667
sI14693220
F2.0
sI11572070
F2.0
sI13669224
F2.0
sI160572
F2.0
sI12874603
F1.8
sI4109165
F2.0
sI12587887
F2.0
sI14339562
F2.0
sI6181758
F1.6781609195402298
sI13415232
F1.6666666666666665
sI1340290
F1.7777777777777777
sI11662212
F1.6774193548387095
sI13865867
F2.0
sI12071820
F1.2
sI1471373
F1.2602739726027397
sI6763409
F0.6666666666666667
sI9327506
F2.0
sI6951829
F2.0
sI1692573
F1.7826086956521738
sI6976414
F1.0
sI6476613
F2.0
sI12932001
F2.0
sI45987
F1.9183673469387754
sI13218729
F2.0
sI9343915
F2.0
sI13546414
F1.3333333333333333
sI11498416
F1.3157894736842106
sI11940785
F2.0
sI4527029
F1.7142857142857144
sI12497846
F1.0
sI1602491
F1.8461538461538463
sI11588543
F1.619047619047619
sI7713728
F1.875
sI4314054
F1.6868686868686869
sI54215
F2.0
sI13824970
F2.0
sI130552
F2.0
sI799701
F2.0
sI5526487
F1.7857142857142856
sI5952474
F1.7333333333333334
sI6992859
F1.8461538461538463
sI1545185
F1.7419354838709677
sI12383204
F2.0
sI177129
F1.8625954198473282
sI11924459
F1.951219512195122
sI9425902
F2.0
sI5526514
F1.92
sI8422876
F1.9375
sI12366845
F0.0
sI8238078
F1.6
sI8090623
F1.9375
sI7918592
F1.7647058823529411
sI1864705
F1.8
sI12088322
F0.0
sI6730758
F1.9130434782608696
sI2429961
F1.6470588235294117
sI9393163
F0.0
sI7287822
F1.8644067796610169
sI3601424
F1.89247311827957
sI13685592
F1.3333333333333333
sI4452800
F2.0
sI6640662
F2.0
sI7713815
F2.0
sI13653016
F2.0
sI13258244
F2.0
sI11498523
F1.5135135135135136
sI7746589
F1.625
sI3432321
F1.8048780487804879
sI9259184
F1.8125
sI2135075
F1.608695652173913
sI3765289
F1.0
sI14398508
F0.0
sI4461613
F2.0
sI9974833
F2.0
sI4294835
F1.7674418604651163
sI4568116
F1.8282208588957056
sI6214710
F1.8399999999999999
sI5690424
F1.7272727272727273
sI7869497
F1.0
sI5280827
F2.0
sI8442940
F1.9
sI6065674
F1.6666666666666665
sI9933886
F1.4782608695652173
sI6763587
F1.5
sI29765
F1.8222222222222222
sI14242888
F2.0
sI3593290
F2.0
sI6796364
F2.0
sI7222349
F1.9047619047619047
sI6296656
F1.8245614035087718
sI4494419
F1.0
sI11474006
F1.8461538461538463
sI11498583
F1.1875
sI10671192
F1.9166666666666665
sI4518756
F1.368421052631579
sI9712731
F1.0
sI1881180
F1.9534883720930232
sI12563549
F2.0
sI12067685
F2.0
sI9344096
F2.0
sI13464674
F0.0
sI750438
F1.934065934065934
sI250983
F1.6923076923076923
sI10253416
F1.0
sI693353
F1.7647058823529411
sI6444138
F2.0
sI13079659
F1.3333333333333333
sI8420883
F1.0
sI6444148
F1.5833333333333335
sI1529393
F1.4285714285714286
sI5182313
F1.9411764705882353
sI570493
F1.9298245614035088
sI1840255
F1.8666666666666667
sI13751426
F2.0
sI12608363
F2.0
sI4863108
F1.7954545454545454
sI13443949
F1.5714285714285714
sI2831504
F2.0
sI218259
F2.0
sI12752020
F2.0
sI9237653
F1.75
sI1873046
F1.4482758620689655
sI12432535
F1.4285714285714286
sI13374617
F2.0
sI9057435
F1.3333333333333333
sI7050397
F2.0
sI8410270
F2.0
sI14308511
F2.0
sI349347
F1.709090909090909
sI2061478
F1.7777777777777777
sI10138792
F1.6
sI5371051
F1.3599999999999999
sI13866156
F2.0
sI11818157
F1.6
sI3069104
F1.8823529411764706
sI210097
F1.8782608695652174
sI9373802
F1.3846153846153846
sI11760822
F1.6842105263157894
sI2167993
F1.8214285714285714
sI12891323
F2.0
sI12489916
F1.5
sI11757376
F1.5
sI14742722
F2.0
sI2798787
F1.851063829787234
sI13907143
F2.0
sI11343048
F1.8181818181818183
sI13391054
F2.0
sI13674701
F2.0
sI11121872
F1.6923076923076923
sI2823378
F1.8064516129032258
sI9383459
F1.7073170731707317
sI54487
F2.0
sI1668313
F2.0
sI4879579
F2.0
sI95453
F1.6666666666666665
sI10106081
F1.8399999999999999
sI13767907
F1.8181818181818183
sI8238311
F1.525
sI3945704
F1.7473684210526317
sI5706985
F1.7894736842105263
sI4180178
F2.0
sI12432623
F0.6666666666666667
sI12023024
F2.0
sI13653233
F1.0
sI586994
F1.5806451612903225
sI8828147
F2.0
sI13530359
F0.0
sI12973308
F2.0
sI9508099
F1.0
sI7508865
F0.6666666666666667
sI6763785
F1.6470588235294117
sI1185034
F1.375
sI12125635
F2.0
sI6444303
F1.9047619047619047
sI5690640
F2.0
sI13589
F1.8076923076923077
sI4461846
F2.0
sI10253591
F1.9047619047619047
sI3519768
F1.6666666666666665
sI7033732
F1.9
sI6706463
F0.0
sI13514017
F1.4285714285714286
sI7611271
F2.0
sI12873268
F2.0
sI12604733
F0.0
sI2526773
F1.6666666666666665
sI8131907
F1.5714285714285714
sI8238404
F1.4683544303797469
sI13294824
F1.6
sI5870922
F1.7391304347826086
sI4461901
F1.0
sI13300621
F2.0
sI1373520
F1.7428571428571429
sI447826
F1.8484848484848486
sI4879702
F1.9
sI1365335
F1.7777777777777777
sI10391455
F1.7777777777777777
sI14461747
F2.0
sI13079902
F2.0
sI13874533
F1.5555555555555556
sI13374823
F2.0
sI7239024
F1.7741935483870968
sI8717204
F1.6296296296296298
sI3419711
F1.8297872340425532
sI4928894
F2.0
sI5506
F1.8888888888888888
sI21891
F1.619047619047619
sI3052935
F1.6923076923076923
sI13415816
F2.0
sI6780300
F1.7777777777777777
sI8861069
F1.7
sI12047758
F1.3333333333333333
sI4216208
F1.55
sI13686161
F0.0
sI5862806
F1.8666666666666667
sI6780313
F1.5555555555555556
sI5649821
F1.1428571428571428
sI13728510
F1.5555555555555556
sI2880944
F2.0
sI12580274
F1.0857142857142856
sI4559774
F1.9
sI14407094
F2.0
sI13344433
F2.0
sI7476671
F1.75
sI9857
F1.9047619047619047
sI7804358
F2.0
sI6895050
F1.8095238095238095
sI14767573
F2.0
sI169430
F1.7142857142857144
sI12383703
F0.6666666666666667
sI13969106
F1.3333333333333333
sI8402408
F1.8596491228070176
sI1529321
F1.761467889908257
sI12621291
F1.6363636363636362
sI9770477
F1.5
sI6436334
F1.8064516129032258
sI2848239
F1.8181818181818183
sI5959251
F2.0
sI14125957
F2.0
sI7244031
F2.0
sI1644031
F1.657142857142857
sI11990528
F1.3333333333333333
sI5445126
F2.0
sI10311094
F2.0
sI3653207
F1.6896551724137931
sI7575052
F2.0
sI9844242
F2.0
sI8271384
F1.911111111111111
sI6075932
F1.8
sI12736032
F1.8333333333333335
sI12826145
F2.0
sI6886946
F1.9166666666666665
sI10116601
F2.0
sI5174821
F1.72
sI10835494
F2.0
sI11220522
F1.793103448275862
sI1827762
F1.793103448275862
sI7745117
F1.8181818181818183
sI10995976
F1.625
sI1332786
F1.8148148148148149
sI11441717
F1.8
sI1717816
F2.0
sI12752442
F1.625
sI56927
F1.6
sI14759485
F2.0
sI13751871
F0.0
sI1881298
F1.78125
sI4838985
F2.0
sI2848330
F1.6363636363636362
sI10253899
F1.5
sI11398953
F1.8181818181818183
sI14300751
F1.3333333333333333
sI8789821
F1.4285714285714286
sI14743129
F2.0
sI5125723
F1.8620689655172413
sI4699742
F1.3333333333333333
sI7245413
F0.0
sI7582651
F2.0
sI9273978
F1.2
sI14603878
F2.0
sI2848362
F1.3333333333333333
sI13866603
F0.0
sI12211821
F1.6
sI14489201
F2.0
sI4085362
F1.7
sI13375092
F2.0
sI7894645
F1.3333333333333333
sI8025718
F0.0
sI8904297
F1.2
sI9663423
F1.3333333333333333
sI11343485
F1.7142857142857144
sI7181950
F1.8805970149253732
sI11826815
F1.2
sI12998272
F2.0
sI7321217
F1.8888888888888888
sI5412487
F0.0
sI2848393
F1.5
sI9840919
F1.5
sI6887053
F0.0
sI1341072
F1.8536585365853657
sI4118162
F1.6
sI3749523
F1.8392857142857144
sI14071446
F2.0
sI8337048
F1.4736842105263157
sI7472068
F1.7037037037037037
sI13325983
F1.7142857142857144
sI54944
F1.4285714285714286
sI5019306
F1.8947368421052633
sI1094599
F1.6842105263157894
sI13995573
F0.0
sI8067585
F1.8461538461538463
sI9541295
F1.8823529411764706
sI6993585
F2.0
sI38579
F1.5
sI4699828
F1.1333333333333333
sI14186170
F2.0
sI3839678
F1.2
sI5447285
F2.0
sI22208
F2.0
sI22212
F1.4782608695652173
sI11474629
F2.0
sI7476936
F1.3333333333333333
sI4331214
F1.8823529411764706
sI4445906
F1.3333333333333333
sI5064995
F1.8461538461538463
sI6854357
F2.0
sI13275334
F2.0
sI11122394
F1.7894736842105263
sI554720
F1.8703703703703702
sI7845607
F1.7777777777777777
sI5813992
F2.0
sI1758953
F1.875
sI5215982
F1.7
sI12957423
F1.9444444444444444
sI5478135
F1.7647058823529411
sI4609785
F1.8245614035087718
sI12515067
F1.6666666666666665
sI14698794
F1.3333333333333333
sI12183851
F1.2
sI13926017
F1.5
sI10426124
F2.0
sI13063952
F1.3333333333333333
sI9180947
F1.9565217391304348
sI5166870
F1.875
sI13391640
F1.4545454545454546
sI14219033
F1.3333333333333333
sI4315439
F2.0
sI9918240
F1.3333333333333333
sI5592866
F2.0
sI8336347
F1.0
sI9180965
F2.0
sI5371687
F1.9230769230769231
sI743211
F1.9183673469387754
sI8034092
F1.5
sI6690605
F2.0
sI4293597
F1.7894736842105263
sI1234740
F1.3333333333333333
sI7984949
F2.0
sI6879036
F2.0
sI7986179
F2.0
sI7714627
F1.878787878787879
sI2701124
F1.6774193548387095
sI12208307
F2.0
sI12916551
F1.6363636363636362
sI7214920
F1.8461538461538463
sI890705
F1.875
sI22354
F1.786046511627907
sI13449049
F1.3333333333333333
sI9570618
F1.5625
sI4503393
F2.0
sI12253029
F1.5
sI2881388
F1.8736842105263158
sI1701741
F2.0
sI7462268
F1.5
sI8189821
F2.0
sI2043541
F1.4594594594594594
sI4279959
F1.75
sI7919500
F1.4285714285714286
sI12302222
F2.0
sI5076880
F1.8
sI8378257
F1.4285714285714286
sI7853971
F1.0
sI13918656
F0.0
sI9590679
F1.7647058823529411
sI2021274
F1.872340425531915
sI4787233
F1.0
sI14153636
F1.6666666666666665
sI6862758
F1.8181818181818183
sI2684840
F2.0
sI4588530
F2.0
sI14137262
F1.7777777777777777
sI3012529
F1.7752808988764044
sI7796658
F1.4
sI6066455
F1.9285714285714286
sI12998582
F2.0
sI6059968
F2.0
sI4484747
F1.2
sI5085125
F1.5702479338842976
sI4868653
F1.8181818181818183
sI3602379
F1.7283950617283952
sI2014882
F1.6923076923076923
sI5453775
F1.4285714285714286
sI4359160
F1.4597701149425286
sI169938
F0.0
sI7927765
F2.0
sI4995033
F1.878787878787879
sI2963419
F1.7
sI9197535
F1.3333333333333333
sI1472481
F1.7489177489177488
sI276450
F1.5925925925925926
sI3905508
F1.7857142857142856
sI13711334
F2.0
sI2930663
F1.8235294117647058
sI5191658
F2.0
sI989163
F1.8947368421052633
sI4585452
F2.0
sI14710769
F2.0
sI8460627
F0.8
sI14252020
F1.0
sI3412990
F1.7
sI9111413
F1.657142857142857
sI3394437
F1.4285714285714286
sI1161210
F1.4969325153374233
sI10032327
F2.0
sI7018497
F1.6666666666666665
sI1112067
F1.8294573643410854
sI1472520
F1.7056277056277056
sI11589644
F1.3846153846153846
sI5584915
F2.0
sI579605
F1.8
sI7575576
F1.5
sI7280665
F1.0
sI9549850
F1.7916666666666665
sI6764572
F1.8867924528301887
sI13318173
F2.0
sI9685076
F2.0
sI13216268
F1.6666666666666665
sI9541666
F2.0
sI5755910
F2.0
sI2529318
F1.5172413793103448
sI7823025
F1.7894736842105263
sI4044840
F2.0
sI14104621
F2.0
sI4069422
F1.8461538461538463
sI4823089
F1.8571428571428572
sI14374965
F1.5
sI12154934
F1.4838709677419355
sI12545716
F2.0
sI11861063
F1.7142857142857144
sI13908031
F1.0
sI5380160
F1.5555555555555556
sI10860611
F2.0
sI3668038
F1.7333333333333334
sI6248526
F2.0
sI14204600
F2.0
sI5163162
F1.7352941176470589
sI14532696
F0.0
sI4358181
F2.0
sI13031523
F2.0
sI6322283
F1.5555555555555556
sI9508975
F2.0
sI2021489
F1.5
sI3528826
F1.9223300970873787
sI4098410
F1.5
sI13801598
F2.0
sI1112193
F1.7166666666666668
sI12130434
F1.0
sI1071235
F1.868421052631579
sI6452246
F1.9
sI13138055
F2.0
sI6936712
F2.0
sI7853079
F1.619047619047619
sI9926796
F1.7142857142857144
sI3659917
F1.7619047619047619
sI13924495
F2.0
sI8799256
F1.627906976744186
sI497810
F1.5407407407407407
sI13768853
F1.6
sI9494212
F1.7222222222222223
sI7362715
F2.0
sI5953696
F1.7857142857142856
sI4090224
F1.7045454545454546
sI7755144
F1.8333333333333335
sI4479140
F1.6
sI10279083
F1.3333333333333333
sI7840797
F2.0
sI1264217
F2.0
sI3988018
F1.7803468208092486
sI12843196
F2.0
sI6072693
F1.875
sI2365632
F1.8181818181818183
sI5970118
F1.5
sI7698631
F1.5
sI14055624
F0.0
sI6027467
F2.0
sI39116
F1.8260869565217392
sI4446413
F1.4285714285714286
sI12368082
F2.0
sI12384469
F2.0
sI6838488
F0.6666666666666667
sI1374434
F1.9130434782608696
sI13621476
F0.0
sI9459945
F1.6
sI7649517
F1.8
sI9918713
F2.0
sI6134013
F1.7916666666666665
sI12826881
F1.7142857142857144
sI1374466
F1.8399999999999999
sI13490438
F1.0
sI14522631
F2.0
sI12736777
F2.0
sI9885963
F1.625
sI12835086
F1.4444444444444444
sI6347026
F1.8599999999999999
sI12761363
F2.0
sI13007124
F1.619047619047619
sI12308161
F1.9310344827586206
sI13121821
F1.6
sI12343588
F1.5333333333333332
sI9255725
F1.8
sI13555596
F2.0
sI8116523
F1.8181818181818183
sI9845039
F1.6666666666666665
sI2898226
F1.523076923076923
sI4593974
F2.0
sI13015353
F2.0
sI12253499
F2.0
sI6543678
F1.7894736842105263
sI1775935
F2.0
sI10434883
F1.8888888888888888
sI10611728
F2.0
sI9574727
F1.0
sI10475848
F2.0
sI13591607
F1.8260869565217392
sI13605196
F1.3333333333333333
sI12269155
F1.9272727272727272
sI1587540
F1.8461538461538463
sI13800505
F0.8
sI11295065
F2.0
sI5904732
F2.0
sI1030500
F1.7142857142857144
sI11590000
F1.4545454545454546
sI13912467
F2.0
sI3701108
F1.5555555555555556
sI14842237
F0.0
sI14653823
F0.0
sI6134145
F1.8666666666666667
sI950046
F2.0
sI14591627
F2.0
sI1489289
F1.9487179487179487
sI4340110
F1.7027027027027026
sI5990808
F1.7435897435897436
sI6576530
F1.5
sI7403927
F2.0
sI14506396
F2.0
sI3094942
F1.8
sI47521
F1.6929460580912863
sI7264674
F2.0
sI12351909
F1.7142857142857144
sI5364137
F1.6326530612244898
sI4020650
F1.5522388059701493
sI6911945
F2.0
sI11213228
F0.0
sI8886703
F1.6666666666666665
sI13677640
F1.6
sI3783090
F1.8333333333333335
sI9238963
F1.0
sI12581300
F1.6363636363636362
sI14367134
F2.0
sI6453686
F1.6896551724137931
sI13814175
F1.0
sI6142396
F1.7565217391304349
sI1128894
F1.8
sI1948096
F2.0
sI14178758
F1.8181818181818183
sI10705351
F1.4666666666666668
sI3389896
F2.0
sI4143561
F1.4666666666666668
sI12286410
F2.0
sI8518091
F2.0
sI10656206
F2.0
sI5601743
F1.5555555555555556
sI13433298
F1.8461538461538463
sI8231382
F1.52
sI10328539
F1.6800000000000002
sI2931165
F1.7428571428571429
sI8272350
F2.0
sI4560053
F1.4782608695652173
sI6019555
F1.6774193548387095
sI7723492
F1.7272727272727273
sI13433317
F1.0
sI3129309
F1.8128654970760234
sI11008495
F1.8
sI11147761
F2.0
sI8575476
F1.5454545454545454
sI6887926
F0.6666666666666667
sI1178106
F1.6548672566371683
sI11082235
F2.0
sI7789055
F1.7894736842105263
sI7911936
F1.4285714285714286
sI13056513
F2.0
sI13081090
F1.6
sI4332035
F0.0
sI10787333
F2.0
sI8758450
F1.0
sI13998602
F1.3333333333333333
sI8428052
F2.0
sI2308630
F1.9375
sI6075481
F1.6
sI11016623
F2.0
sI10074653
F0.0
sI14203428
F2.0
sI14522917
F1.5
sI530983
F1.6842105263157894
sI8649257
F1.7333333333333334
sI14274311
F2.0
sI2660908
F1.0666666666666667
sI13752754
F0.0
sI13171246
F1.5
sI1178162
F1.6744186046511627
sI1956275
F1.6756756756756757
sI197727
F1.8181818181818183
sI1776190
F2.0
sI14711359
F2.0
sI11983286
F1.619047619047619
sI2931271
F1.4074074074074074
sI10164810
F2.0
sI7805515
F2.0
sI2077794
F1.5714285714285714
sI2947662
F1.7857142857142856
sI13236820
F1.5
sI7731797
F1.7692307692307692
sI12630619
F1.8
sI11885148
F1.0
sI8518237
F1.9523809523809523
sI5904992
F1.2
sI13015653
F1.0
sI10132073
F1.5
sI9813223
F2.0
sI9751520
F1.0
sI10353263
F1.5
sI9473811
F0.6666666666666667
sI12727401
F1.0
sI3914363
F2.0
sI4364925
F1.6538461538461537
sI13592
F1.4666666666666668
sI14072256
F1.2
sI13433475
F1.0
sI6240901
F1.5824175824175826
sI3021446
F1.794392523364486
sI7395978
F1.3333333333333333
sI3897995
F1.675
sI3193484
F2.0
sI6167184
F1.6666666666666665
sI11169560
F1.5384615384615383
sI13800294
F2.0
sI9239190
F1.6666666666666665
sI8780440
F1.8
sI916123
F1.7366548042704626
sI13295386
F0.0
sI13265095
F1.0
sI8563141
F1.7297297297297298
sI8052494
F2.0
sI11688611
F1.4285714285714286
sI7035556
F1.875
sI7592616
F2.0
sI8515356
F1.5
sI12081834
F2.0
sI4151979
F1.8409090909090908
sI6568621
F1.8
sI13753007
F1.3333333333333333
sI5454513
F1.5384615384615383
sI7281884
F1.7560975609756098
sI13744821
F1.25
sI13073078
F1.0
sI2374089
F1.2
sI4610745
F1.7777777777777777
sI13327034
F1.6923076923076923
sI14351036
F1.6
sI4364989
F1.6774193548387095
sI7330494
F1.896103896103896
sI400067
F1.9
sI8747720
F1.6666666666666665
sI11687031
F1.5
sI5782221
F1.9649122807017543
sI12344014
F2.0
sI13015767
F1.7272727272727273
sI13478868
F1.0
sI14055887
F2.0
sI4405982
F1.8888888888888888
sI7650016
F2.0
sI735970
F2.0
sI5511911
F2.0
sI10634364
F1.2
sI7527149
F2.0
sI4863101
F1.8526315789473684
sI12493396
F1.3333333333333333
sI5511924
F1.8461538461538463
sI9329398
F2.0
sI3903273
F1.6
sI5495547
F1.5
sI4635390
F1.8461538461538463
sI8624898
F1.5932203389830508
sI1178371
F1.576470588235294
sI3987926
F1.7751479289940828
sI14809866
F0.0
sI891661
F1.7578947368421054
sI2292495
F1.7777777777777777
sI13417233
F2.0
sI2658094
F1.6764705882352942
sI1497879
F1.7625
sI13015832
F2.0
sI8303748
F2.0
sI8428314
F2.0
sI9894686
F1.6615384615384614
sI5593888
F1.7333333333333334
sI1329627
F2.0
sI9706279
F2.0
sI957224
F1.8596491228070176
sI6575654
F1.2
sI5762866
F2.0
sI13450030
F1.7894736842105263
sI10050351
F1.0
sI4119345
F1.6
sI2423613
F1.5384615384615383
sI10427199
F1.7272727272727273
sI6976
F1.9024390243902438
sI14141920
F1.1111111111111112
sI1203014
F1.9333333333333333
sI1964878
F1.6666666666666665
sI5593939
F1.6764705882352942
sI10247000
F1.5555555555555556
sI13564762
F1.0
sI14013583
F2.0
sI4922204
F1.6829268292682928
sI6445917
F1.9166666666666665
sI13589343
F1.5714285714285714
sI4278067
F1.7714285714285714
sI11590512
F2.0
sI13261681
F1.2727272727272727
sI7093109
F2.0
sI13015927
F2.0
sI3609536
F1.5555555555555556
sI8846202
F1.8181818181818183
sI2481019
F1.7142857142857144
sI3164650
F2.0
sI973695
F1.8947368421052633
sI7134081
F2.0
sI14474114
F2.0
sI2694019
F1.5882352941176472
sI1391492
F1.7746478873239435
sI7961477
F1.6363636363636362
sI14387692
F2.0
sI6364042
F1.4117647058823528
sI8813451
F1.8
sI801680
F1.7391304347826086
sI14056340
F0.0
sI6053700
F2.0
sI7920541
F1.696969696969697
sI2022303
F1.7857142857142856
sI10594800
F0.5
sI1342370
F1.6153846153846154
sI13671334
F1.5
sI6151079
F1.8620689655172413
sI8371115
F2.0
sI9445192
F1.0
sI9698226
F1.6756756756756757
sI849408
F1.9393939393939394
sI12811191
F1.5
sI9841140
F2.0
sI801722
F1.7142857142857144
sI195515
F2.0
sI1252289
F1.9487179487179487
sI646087
F0.0
sI13376457
F1.5555555555555556
sI13188046
F2.0
sI12103501
F1.5
sI13024208
F2.0
sI8469464
F1.5
sI7633883
F1.7142857142857144
sI9591772
F2.0
sI13613562
F0.0
sI13294558
F2.0
sI14572511
F2.0
sI8548176
F1.6666666666666665
sI14572515
F2.0
sI4430821
F1.9090909090909092
sI11418599
F1.8333333333333335
sI7797744
F1.8
sI12303347
F2.0
sI932853
F1.6470588235294117
sI6314998
F1.619047619047619
sI5676025
F1.368421052631579
sI1301500
F2.0
sI8371203
F1.75
sI10034183
F1.2
sI8082512
F2.0
sI3881993
F1.25
sI9575439
F1.6
sI7855120
F1.5384615384615383
sI7740436
F1.7777777777777777
sI4291607
F1.0
sI6921241
F1.0
sI14335003
F2.0
sI7879708
F2.0
sI13044229
F1.5
sI13655073
F2.0
sI3021862
F1.6666666666666665
sI9107357
F1.9183673469387754
sI7273513
F2.0
sI1612842
F1.75
sI179244
F1.7530864197530864
sI8275122
F2.0
sI5717690
F1.5555555555555556
sI891953
F1.0769230769230769
sI31796
F1.5395189003436425
sI629814
F2.0
sI7109689
F2.0
sI10542140
F1.8399999999999999
sI6248970
F1.7647058823529411
sI8830015
F1.7454545454545456
sI10264774
F1.6
sI23619
F1.795275590551181
sI3931204
F1.7777777777777777
sI11492423
F1.0833333333333333
sI4160585
F1.9411764705882353
sI6552654
F1.835294117647059
sI2776143
F1.553719008264463
sI6134867
F1.8095238095238095
sI8584276
F1.75
sI11885653
F2.0
sI7871576
F0.0
sI4586590
F1.8627450980392157
sI531552
F1.6363636363636362
sI9256035
F1.6
sI6823017
F1.7714285714285714
sI72811
F1.7560975609756098
sI5078127
F1.75
sI12639344
F1.0
sI2186358
F2.0
sI7920759
F2.0
sI8133752
F2.0
sI12246137
F0.0
sI8354938
F1.7
sI10271867
F2.0
sI9231486
F1.8666666666666667
sI13046976
F1.7777777777777777
sI9854083
F2.0
sI5659780
F1.3333333333333333
sI10021398
F1.6363636363636362
sI3079305
F1.7241379310344827
sI10164759
F2.0
sI13032590
F1.6666666666666665
sI7003280
F1.7731958762886597
sI7634067
F2.0
sI13532311
F2.0
sI5455004
F1.7272727272727273
sI2931870
F1.75
sI9460898
F1.3333333333333333
sI5889190
F1.95
sI13417639
F1.2
sI14843050
F1.0
sI8934599
F1.7142857142857144
sI728238
F1.75
sI4553903
F1.8857142857142857
sI7740592
F2.0
sI11787441
F2.0
sI12647606
F1.75
sI6118583
F1.6
sI1113272
F1.7560975609756098
sI4586681
F1.8571428571428572
sI826555
F0.6666666666666667
sI3890373
F1.855421686746988
sI4447430
F2.0
sI3415245
F2.0
sI7036112
F2.0
sI10084216
F1.3333333333333333
sI11648212
F0.6666666666666667
sI5659866
F2.0
sI11410652
F2.0
sI2764624
F1.7431192660550459
sI4644069
F2.0
sI4652263
F2.0
sI5405928
F1.6
sI6695
F1.7446808510638299
sI11474130
F2.0
sI13810937
F2.0
sI1899770
F1.7142857142857144
sI7527677
F2.0
sI6544642
F1.7142857142857144
sI8388481
F1.5
sI13221129
F2.0
sI2915595
F1.7872340425531914
sI14469677
F2.0
sI10052824
F2.0
sI4021522
F2.0
sI3792147
F1.6666666666666665
sI2848370
F1.5555555555555556
sI4996375
F1.7454545454545456
sI3693850
F1.8152173913043477
sI13019695
F1.8095238095238095
sI13466910
F2.0
sI6765855
F1.8064516129032258
sI3628320
F1.8333333333333335
sI13709190
F1.3
sI9485607
F1.75
sI7273770
F1.0
sI14843783
F1.3333333333333333
sI3808557
F1.6
sI4767023
F2.0
sI4283698
F1.7818181818181817
sI10033715
F0.0
sI8291550
F2.0
sI5086521
F2.0
sI1850260
F1.564102564102564
sI2915643
F0.0
sI12320063
F2.0
sI2776391
F1.7058823529411766
sI6676364
F1.8481012658227849
sI6544715
F1.4
sI10116429
F2.0
sI14400847
F2.0
sI4177233
F1.5185185185185186
sI826706
F1.4285714285714286
sI9755993
F2.0
sI4431210
F1.6
sI11992431
F1.8461538461538463
sI3888360
F1.6666666666666665
sI14105971
F1.8461538461538463
sI1187188
F2.0
sI5684598
F2.0
sI1340649
F1.75
sI5856633
F2.0
sI12049787
F0.8571428571428572
sI13606268
F1.4285714285714286
sI9993602
F2.0
sI10231171
F1.7894736842105263
sI3775876
F1.8
sI9362821
F1.6666666666666665
sI12463075
F0.0
sI2219399
F1.7959183673469388
sI3415434
F1.5
sI472070
F1.3333333333333333
sI12262803
F2.0
sI3601254
F1.4545454545454546
sI9731479
F2.0
sI3521944
F1.5
sI7211531
F1.8333333333333335
sI93505
F1.8795180722891565
sI5660081
F0.0
sI10190260
F2.0
sI6602167
F1.9130434782608696
sI7527864
F1.8
sI2547129
F1.5555555555555556
sI10051003
F1.3333333333333333
sI7634365
F1.8620689655172413
sI5832127
F1.25
sI9452993
F1.6363636363636362
sI10149314
F2.0
sI4750791
F1.5
sI6921672
F2.0
sI990668
F1.7708333333333335
sI2636365
F1.8333333333333335
sI9346513
F2.0
sI8224214
F1.7241379310344827
sI8814039
F2.0
sI8732121
F1.0
sI8265182
F1.5789473684210527
sI48612
F2.0
sI13524454
F2.0
sI10537553
F0.6666666666666667
sI1038465
F1.6441717791411041
sI6602217
F1.8181818181818183
sI10427882
F2.0
sI7921131
F1.5294117647058822
sI10706413
F1.2727272727272727
sI5709298
F1.8311688311688312
sI13622776
F1.0
sI12221012
F2.0
sI11656698
F1.5454545454545454
sI8461819
F1.0
sI3276286
F1.435897435897436
sI8846849
F2.0
sI220676
F1.875
sI7092874
F2.0
sI13393418
F1.8
sI11714059
F0.0
sI2842124
F1.696969696969697
sI11905849
F2.0
sI2326445
F1.8571428571428572
sI228883
F1.5
sI4278873
F1.736842105263158
sI5717528
F2.0
sI8814105
F2.0
sI13565466
F2.0
sI8191517
F1.0
sI13565471
F2.0
sI10083878
F1.9333333333333333
sI1695275
F1.4365079365079365
sI12566065
F2.0
sI9279773
F1.8571428571428572
sI6356533
F1.4285714285714286
sI9166393
F2.0
sI4947526
F1.7407407407407407
sI13377097
F1.6
sI13098572
F0.0
sI13295184
F1.4
sI9920084
F2.0
sI8134231
F2.0
sI8420956
F2.0
sI1498719
F2.0
sI9114896
F1.8823529411764706
sI4644455
F2.0
sI11853416
F0.0
sI56937
F1.2
sI5725804
F2.0
sI6626933
F1.76
sI10116726
F2.0
sI369940
F1.7894736842105263
sI12033661
F1.2
sI13450880
F1.6
sI12508801
F2.0
sI3897963
F1.8313253012048194
sI10747524
F1.7058823529411766
sI4275846
F1.5555555555555556
sI8814215
F1.2
sI9862792
F1.8235294117647058
sI4053612
F1.8
sI6908525
F1.4285714285714286
sI13028899
F1.3333333333333333
sI13082258
F1.0
sI7509273
F2.0
sI40601
F1.8545454545454545
sI1391215
F1.6216216216216215
sI5783197
F1.8285714285714287
sI4580825
F1.5686274509803921
sI14220964
F2.0
sI13090471
F2.0
sI777903
F1.6470588235294117
sI24240
F1.8918918918918919
sI225224
F1.7391304347826086
sI1277618
F2.0
sI5652147
F2.0
sI8036024
F1.8095238095238095
sI7511737
F2.0
sI12492474
F2.0
sI3522237
F2.0
sI4603588
F1.2
sI11304657
F2.0
sI14655187
F2.0
sI12517081
F1.5
sI6323935
F1.8536585365853657
sI12426977
F1.7333333333333334
sI8822499
F2.0
sI12386020
F2.0
sI14057189
F2.0
sI2227959
F1.7840909090909092
sI7651065
F1.7241379310344827
sI8191739
F1.75
sI1810172
F1.7
sI7006683
F2.0
sI3629014
F1.8333333333333335
sI1179399
F1.5
sI14679817
F2.0
sI2301709
F1.7142857142857144
sI3342094
F1.7142857142857144
sI7708436
F1.8461538461538463
sI10379031
F1.75
sI8011545
F1.9574468085106385
sI13696794
F2.0
sI5317935
F2.0
sI10051357
F2.0
sI7511838
F1.9090909090909092
sI5088560
F1.8421052631578947
sI12304165
F1.6
sI753446
F1.7538461538461538
sI13778731
F2.0
sI1810397
F1.8461538461538463
sI6790961
F2.0
sI4112178
F2.0
sI2621242
F2.0
sI13414367
F2.0
sI6609546
F1.7837837837837838
sI57156
F1.2941176470588236
sI13000520
F1.7777777777777777
sI6882615
F1.7142857142857144
sI9125711
F0.0
sI2410846
F1.3333333333333333
sI6348631
F1.75
sI11255643
F1.5555555555555556
sI6446940
F1.5
sI9248612
F2.0
sI3006311
F2.0
sI6954861
F1.7701149425287355
sI2916208
F1.9230769230769231
sI8249201
F0.0
sI14303090
F2.0
sI13655923
F2.0
sI9953144
F2.0
sI2555771
F1.75
sI14533848
F1.0
sI3342206
F1.0
sI1811776
F1.7225433526011562
sI2875267
F1.9189189189189189
sI3997572
F2.0
sI13614982
F1.4285714285714286
sI2441095
F1.5945945945945947
sI8052617
F1.8064516129032258
sI13590412
F1.8
sI13391024
F1.75
sI7348110
F1.75
sI8814479
F2.0
sI8552338
F2.0
sI14368660
F2.0
sI14360470
F0.0
sI9109401
F1.5789473684210527
sI4603803
F0.9230769230769231
sI3866526
F1.52
sI1458081
F1.925925925925926
sI10231714
F1.7894736842105263
sI4718577
F2.0
sI8206659
F0.0
sI14651378
F2.0
sI9887664
F1.0
sI13908638
F1.4166666666666667
sI3898015
F1.435897435897436
sI7749568
F1.7333333333333334
sI13434817
F1.8181818181818183
sI13041602
F1.7
sI8814532
F1.7142857142857144
sI311240
F1.7826086956521738
sI6741968
F1.788235294117647
sI12648403
F1.8
sI12287958
F2.0
sI851927
F2.0
sI10764250
F2.0
sI10928093
F2.0
sI5521378
F2.0
sI9232355
F1.3333333333333333
sI7645862
F2.0
sI13017064
F2.0
sI1867754
F0.0
sI11624428
F2.0
sI14221294
F1.6
sI9494511
F1.5172413793103448
sI7921649
F1.625
sI14057466
F2.0
sI7356415
F2.0
sI14091605
F2.0
s.